target datalayout = "e-m:e-p270:32:32-p271:32:32-p272:64:64-i64:64-i128:128-f80:128-n8:16:32:64-S128"
target triple = "x86_64-pc-linux-gnu"

@.str.197 = private unnamed_addr constant [5 x i8] c"uuid\00", align 1

; Function Attrs: alwaysinline nounwind uwtable
define internal void @ffio_wfourcc(ptr noundef %0, ptr noundef %1) #6 {
  %3 = alloca ptr, align 8
  %4 = alloca ptr, align 8
  store ptr %0, ptr %3, align 8, !tbaa !31
  store ptr %1, ptr %4, align 8, !tbaa !38
  %5 = load ptr, ptr %3, align 8, !tbaa !31
  %6 = load ptr, ptr %4, align 8, !tbaa !38
  %7 = getelementptr inbounds i8, ptr %6, i64 0
  %8 = load i8, ptr %7, align 1, !tbaa !85
  %9 = zext i8 %8 to i32
  %10 = load ptr, ptr %4, align 8, !tbaa !38
  %11 = getelementptr inbounds i8, ptr %10, i64 1
  %12 = load i8, ptr %11, align 1, !tbaa !85
  %13 = zext i8 %12 to i32
  %14 = shl i32 %13, 8
  %15 = or i32 %9, %14
  %16 = load ptr, ptr %4, align 8, !tbaa !38
  %17 = getelementptr inbounds i8, ptr %16, i64 2
  %18 = load i8, ptr %17, align 1, !tbaa !85
  %19 = zext i8 %18 to i32
  %20 = shl i32 %19, 16
  %21 = or i32 %15, %20
  %22 = load ptr, ptr %4, align 8, !tbaa !38
  %23 = getelementptr inbounds i8, ptr %22, i64 3
  %24 = load i8, ptr %23, align 1, !tbaa !85
  %25 = zext i8 %24 to i32
  %26 = shl i32 %25, 24
  %27 = or i32 %21, %26
  call void @avio_wl32(ptr noundef %5, i32 noundef %27)
  ret void
}

; Function Attrs: nounwind uwtable
define internal i32 @mov_write_uuid_tag_ipod(ptr noundef %0) #0 {
  %2 = alloca ptr, align 8
  store ptr %0, ptr %2, align 8, !tbaa !31
  %3 = load ptr, ptr %2, align 8, !tbaa !31
  call void @avio_wb32(ptr noundef %3, i32 noundef 28)
  %4 = load ptr, ptr %2, align 8, !tbaa !31
  call void @ffio_wfourcc(ptr noundef %4, ptr noundef @.str.197)
  %5 = load ptr, ptr %2, align 8, !tbaa !31
  call void @avio_wb32(ptr noundef %5, i32 noundef 1801994482)
  %6 = load ptr, ptr %2, align 8, !tbaa !31
  call void @avio_wb32(ptr noundef %6, i32 noundef 1596215237)
  %7 = load ptr, ptr %2, align 8, !tbaa !31
  call void @avio_wb32(ptr noundef %7, i32 noundef -1170627301)
  %8 = load ptr, ptr %2, align 8, !tbaa !31
  call void @avio_wb32(ptr noundef %8, i32 noundef -821877773)
  %9 = load ptr, ptr %2, align 8, !tbaa !31
  call void @avio_wb32(ptr noundef %9, i32 noundef 0)
  ret i32 28
}