; Function Attrs: nounwind uwtable
define internal fastcc void @mov_write_uuid_tag_ipod(ptr noundef %0) unnamed_addr #0 {
  tail call void @avio_wb32(ptr noundef %0, i32 noundef 28) #16
  tail call void @avio_wl32(ptr noundef %0, i32 noundef 1684632949) #16
  tail call void @avio_wb32(ptr noundef %0, i32 noundef 1801994482) #16
  tail call void @avio_wb32(ptr noundef %0, i32 noundef 1596215237) #16
  tail call void @avio_wb32(ptr noundef %0, i32 noundef -1170627301) #16
  tail call void @avio_wb32(ptr noundef %0, i32 noundef -821877773) #16
  tail call void @avio_wb32(ptr noundef %0, i32 noundef 0) #16
  ret void
}